target datalayout = "e-m:e-p270:32:32-p271:32:32-p272:64:64-i64:64-i128:128-f80:128-n8:16:32:64-S128"
target triple = "x86_64-pc-linux-gnu"

%struct._GArray = type { ptr, i32 }
%struct.file_type_subtype_info = type { ptr, ptr, ptr, ptr, i8, i64, ptr, ptr, ptr, ptr }

@.str.1 = private unnamed_addr constant [8 x i8] c"Wiretap\00", align 1
@.str.2 = private unnamed_addr constant [22 x i8] c"wiretap/file_access.c\00", align 1
@file_type_subtype_table_arr = internal global ptr null, align 8
@wtap_num_builtin_file_types_subtypes = internal global i32 0, align 4
@__func__.wtap_deregister_file_type_subtype = private unnamed_addr constant [34 x i8] c"wtap_deregister_file_type_subtype\00", align 1
@.str.12 = private unnamed_addr constant [33 x i8] c"invalid file type to de-register\00", align 1
@.str.13 = private unnamed_addr constant [44 x i8] c"built-in file types cannot be de-registered\00", align 1

; Function Attrs: null_pointer_is_valid sspstrong uwtable
define void @wtap_deregister_file_type_subtype(i32 noundef %0) #0 {
  %2 = alloca i32, align 4
  %3 = alloca ptr, align 8
  store i32 %0, ptr %2, align 4
  call void @llvm.lifetime.start.p0(i64 8, ptr %3) #12
  %4 = load i32, ptr %2, align 4
  %5 = icmp slt i32 %4, 0
  br i1 %5, label %12, label %6

6:                                                ; preds = %1
  %7 = load i32, ptr %2, align 4
  %8 = load ptr, ptr @file_type_subtype_table_arr, align 8
  %9 = getelementptr inbounds nuw %struct._GArray, ptr %8, i32 0, i32 1
  %10 = load i32, ptr %9, align 8
  %11 = icmp sge i32 %7, %10
  br i1 %11, label %12, label %13

12:                                               ; preds = %6, %1
  call void (ptr, i32, ptr, i64, ptr, ptr, ...) @ws_log_fatal_full(ptr noundef @.str.1, i32 noundef 7, ptr noundef @.str.2, i64 noundef 1302, ptr noundef @__func__.wtap_deregister_file_type_subtype, ptr noundef @.str.12) #13
  unreachable

13:                                               ; preds = %6
  %14 = load i32, ptr %2, align 4
  %15 = load i32, ptr @wtap_num_builtin_file_types_subtypes, align 4
  %16 = icmp ult i32 %14, %15
  br i1 %16, label %17, label %18

17:                                               ; preds = %13
  call void (ptr, i32, ptr, i64, ptr, ptr, ...) @ws_log_fatal_full(ptr noundef @.str.1, i32 noundef 7, ptr noundef @.str.2, i64 noundef 1306, ptr noundef @__func__.wtap_deregister_file_type_subtype, ptr noundef @.str.13) #13
  unreachable

18:                                               ; preds = %13
  %19 = load ptr, ptr @file_type_subtype_table_arr, align 8
  %20 = getelementptr inbounds nuw %struct._GArray, ptr %19, i32 0, i32 0
  %21 = load ptr, ptr %20, align 8
  %22 = load i32, ptr %2, align 4
  %23 = sext i32 %22 to i64
  %24 = getelementptr %struct.file_type_subtype_info, ptr %21, i64 %23
  store ptr %24, ptr %3, align 8
  %25 = load ptr, ptr %3, align 8
  %26 = getelementptr inbounds nuw %struct.file_type_subtype_info, ptr %25, i32 0, i32 0
  store ptr null, ptr %26, align 8
  %27 = load ptr, ptr %3, align 8
  %28 = getelementptr inbounds nuw %struct.file_type_subtype_info, ptr %27, i32 0, i32 1
  store ptr null, ptr %28, align 8
  %29 = load ptr, ptr %3, align 8
  %30 = getelementptr inbounds nuw %struct.file_type_subtype_info, ptr %29, i32 0, i32 2
  store ptr null, ptr %30, align 8
  %31 = load ptr, ptr %3, align 8
  %32 = getelementptr inbounds nuw %struct.file_type_subtype_info, ptr %31, i32 0, i32 3
  store ptr null, ptr %32, align 8
  %33 = load ptr, ptr %3, align 8
  %34 = getelementptr inbounds nuw %struct.file_type_subtype_info, ptr %33, i32 0, i32 4
  store i8 0, ptr %34, align 8
  %35 = load ptr, ptr %3, align 8
  %36 = getelementptr inbounds nuw %struct.file_type_subtype_info, ptr %35, i32 0, i32 5
  store i64 0, ptr %36, align 8
  %37 = load ptr, ptr %3, align 8
  %38 = getelementptr inbounds nuw %struct.file_type_subtype_info, ptr %37, i32 0, i32 6
  store ptr null, ptr %38, align 8
  %39 = load ptr, ptr %3, align 8
  %40 = getelementptr inbounds nuw %struct.file_type_subtype_info, ptr %39, i32 0, i32 7
  store ptr null, ptr %40, align 8
  %41 = load ptr, ptr %3, align 8
  %42 = getelementptr inbounds nuw %struct.file_type_subtype_info, ptr %41, i32 0, i32 8
  store ptr null, ptr %42, align 8
  %43 = load ptr, ptr %3, align 8
  %44 = getelementptr inbounds nuw %struct.file_type_subtype_info, ptr %43, i32 0, i32 9
  store ptr null, ptr %44, align 8
  call void @llvm.lifetime.end.p0(i64 8, ptr %3) #12
  ret void
}