; Function Attrs: null_pointer_is_valid sspstrong uwtable
define void @wtap_deregister_file_type_subtype(i32 noundef %0) local_unnamed_addr #0 {
  %2 = icmp slt i32 %0, 0
  br i1 %2, label %7, label %3

3:                                                ; preds = %1
  %4 = load ptr, ptr @file_type_subtype_table_arr, align 8
  %5 = getelementptr inbounds nuw i8, ptr %4, i64 8
  %6 = load i32, ptr %5, align 8
  %.not = icmp slt i32 %0, %6
  br i1 %.not, label %8, label %7

7:                                                ; preds = %3, %1
  tail call void (ptr, i32, ptr, i64, ptr, ptr, ...) @ws_log_fatal_full(ptr noundef nonnull @.str.1, i32 noundef 7, ptr noundef nonnull @.str.2, i64 noundef 1302, ptr noundef nonnull @__func__.wtap_deregister_file_type_subtype, ptr noundef nonnull @.str.12) #22
  unreachable

8:                                                ; preds = %3
  %9 = load i32, ptr @wtap_num_builtin_file_types_subtypes, align 4
  %10 = icmp ult i32 %0, %9
  br i1 %10, label %11, label %12

11:                                               ; preds = %8
  tail call void (ptr, i32, ptr, i64, ptr, ptr, ...) @ws_log_fatal_full(ptr noundef nonnull @.str.1, i32 noundef 7, ptr noundef nonnull @.str.2, i64 noundef 1306, ptr noundef nonnull @__func__.wtap_deregister_file_type_subtype, ptr noundef nonnull @.str.13) #22
  unreachable

12:                                               ; preds = %8
  %13 = load ptr, ptr %4, align 8
  %14 = zext nneg i32 %0 to i64
  %15 = getelementptr %struct.file_type_subtype_info, ptr %13, i64 %14
  %16 = getelementptr inbounds nuw i8, ptr %15, i64 40
  tail call void @llvm.memset.p0.i64(ptr noundef align 8 dereferenceable(33) %15, i8 0, i64 33, i1 false)
  tail call void @llvm.memset.p0.i64(ptr noundef nonnull align 8 dereferenceable(40) %16, i8 0, i64 40, i1 false)
  ret void
}